; Function Attrs: nounwind uwtable
define void @Kit_DsdManFree(ptr noundef captures(none) %0) local_unnamed_addr #0 {
  %2 = getelementptr inbounds nuw i8, ptr %0, i64 24
  %3 = load ptr, ptr %2, align 8, !tbaa !26
  tail call void @Cloud_Quit(ptr noundef %3) #27
  %4 = getelementptr inbounds nuw i8, ptr %0, i64 40
  %5 = load ptr, ptr %4, align 8, !tbaa !33
  %6 = getelementptr inbounds nuw i8, ptr %5, i64 8
  %7 = load ptr, ptr %6, align 8, !tbaa !32
  %.not.i = icmp eq ptr %7, null
  br i1 %.not.i, label %Vec_IntFree.exit, label %8

8:                                                ; preds = %1
  tail call void @free(ptr noundef nonnull %7) #27
  br label %Vec_IntFree.exit

Vec_IntFree.exit:                                 ; preds = %1, %8
  tail call void @free(ptr noundef nonnull %5) #27
  %9 = getelementptr inbounds nuw i8, ptr %0, i64 32
  %10 = load ptr, ptr %9, align 8, !tbaa !27
  %11 = getelementptr inbounds nuw i8, ptr %10, i64 8
  %12 = load ptr, ptr %11, align 8, !tbaa !19
  %.not.i7 = icmp eq ptr %12, null
  br i1 %.not.i7, label %Vec_PtrFree.exit, label %13

13:                                               ; preds = %Vec_IntFree.exit
  tail call void @free(ptr noundef nonnull %12) #27
  br label %Vec_PtrFree.exit

Vec_PtrFree.exit:                                 ; preds = %Vec_IntFree.exit, %13
  tail call void @free(ptr noundef nonnull %10) #27
  %14 = getelementptr inbounds nuw i8, ptr %0, i64 8
  %15 = load ptr, ptr %14, align 8, !tbaa !24
  %16 = getelementptr inbounds nuw i8, ptr %15, i64 8
  %17 = load ptr, ptr %16, align 8, !tbaa !19
  %.not.i8 = icmp eq ptr %17, null
  br i1 %.not.i8, label %Vec_PtrFree.exit9, label %18

18:                                               ; preds = %Vec_PtrFree.exit
  tail call void @free(ptr noundef nonnull %17) #27
  br label %Vec_PtrFree.exit9

Vec_PtrFree.exit9:                                ; preds = %Vec_PtrFree.exit, %18
  tail call void @free(ptr noundef nonnull %15) #27
  %19 = getelementptr inbounds nuw i8, ptr %0, i64 16
  %20 = load ptr, ptr %19, align 8, !tbaa !25
  %21 = getelementptr inbounds nuw i8, ptr %20, i64 8
  %22 = load ptr, ptr %21, align 8, !tbaa !19
  %.not.i10 = icmp eq ptr %22, null
  br i1 %.not.i10, label %24, label %23

23:                                               ; preds = %Vec_PtrFree.exit9
  tail call void @free(ptr noundef nonnull %22) #27
  br label %24

24:                                               ; preds = %Vec_PtrFree.exit9, %23
  tail call void @free(ptr noundef nonnull %20) #27
  tail call void @free(ptr noundef nonnull %0) #27
  ret void
}